; Function Attrs: nounwind uwtable
define noalias noundef ptr @Gia_ManMulFindCounts(ptr noundef readonly captures(none) %0, ptr noundef readonly captures(none) %1) local_unnamed_addr #0 {
  %3 = tail call noalias dereferenceable_or_null(16) ptr @malloc(i64 noundef 16) #21
  %4 = getelementptr inbounds nuw i8, ptr %3, i64 4
  store i32 0, ptr %4, align 4, !tbaa !33
  store i32 16, ptr %3, align 8, !tbaa !34
  %5 = tail call noalias dereferenceable_or_null(64) ptr @malloc(i64 noundef 64) #21
  %6 = getelementptr inbounds nuw i8, ptr %3, i64 8
  store ptr %5, ptr %6, align 8, !tbaa !35
  %7 = getelementptr i8, ptr %1, i64 4
  %.val1724 = load i32, ptr %7, align 4, !tbaa !33
  %8 = icmp sgt i32 %.val1724, 0
  br i1 %8, label %.lr.ph26, label %.critedge

.lr.ph26:                                         ; preds = %2
  %9 = getelementptr i8, ptr %1, i64 8
  %10 = getelementptr i8, ptr %0, i64 8
  br label %11

11:                                               ; preds = %.lr.ph26, %.critedge2
  %.val1742 = phi i32 [ %.val1724, %.lr.ph26 ], [ %.val17, %.critedge2 ]
  %.pre.i.i36 = phi ptr [ %5, %.lr.ph26 ], [ %.pre.i.i37, %.critedge2 ]
  %.val17.i32 = phi ptr [ %5, %.lr.ph26 ], [ %.val17.i33, %.critedge2 ]
  %indvars.iv29 = phi i64 [ 0, %.lr.ph26 ], [ %indvars.iv.next30, %.critedge2 ]
  %.val19 = load ptr, ptr %9, align 8, !tbaa !35
  %12 = getelementptr inbounds nuw i32, ptr %.val19, i64 %indvars.iv29
  %13 = load i32, ptr %12, align 4, !tbaa !29
  %.val20 = load ptr, ptr %10, align 8, !tbaa !39
  %14 = sext i32 %13 to i64
  %15 = getelementptr inbounds %struct.Vec_Int_t_, ptr %.val20, i64 %14
  %16 = getelementptr i8, ptr %15, i64 4
  %.val22 = load i32, ptr %16, align 4, !tbaa !33
  %17 = icmp sgt i32 %.val22, 1
  br i1 %17, label %.lr.ph, label %.critedge2

.lr.ph:                                           ; preds = %11
  %18 = getelementptr i8, ptr %15, i64 8
  br label %19

19:                                               ; preds = %.lr.ph, %Gia_ManMulFindAddEntry1.exit
  %20 = phi ptr [ %.pre.i.i36, %.lr.ph ], [ %.pre.i.i40, %Gia_ManMulFindAddEntry1.exit ]
  %.val17.i = phi ptr [ %.val17.i32, %.lr.ph ], [ %.val17.i35, %Gia_ManMulFindAddEntry1.exit ]
  %indvars.iv = phi i64 [ 1, %.lr.ph ], [ %indvars.iv.next, %Gia_ManMulFindAddEntry1.exit ]
  %.val18 = load ptr, ptr %18, align 8, !tbaa !35
  %21 = getelementptr inbounds nuw i32, ptr %.val18, i64 %indvars.iv
  %22 = load i32, ptr %21, align 4, !tbaa !29
  %.val15.i = load i32, ptr %4, align 4, !tbaa !33
  %23 = icmp sgt i32 %.val15.i, 1
  br i1 %23, label %.lr.ph.i, label %.critedge.i

.lr.ph.i:                                         ; preds = %19, %34
  %indvars.iv.i = phi i64 [ %indvars.iv.next.i, %34 ], [ 0, %19 ]
  %24 = getelementptr inbounds nuw i32, ptr %.val17.i, i64 %indvars.iv.i
  %25 = load i32, ptr %24, align 4, !tbaa !29
  %26 = icmp eq i32 %22, %25
  br i1 %26, label %27, label %34

27:                                               ; preds = %.lr.ph.i
  %28 = trunc nuw nsw i64 %indvars.iv.i to i32
  %29 = and i64 %indvars.iv.i, 4294967294
  %30 = or disjoint i64 %29, 1
  %31 = getelementptr inbounds nuw i32, ptr %.val17.i, i64 %30
  %32 = load i32, ptr %31, align 4, !tbaa !29
  %33 = add nsw i32 %32, 1
  store i32 %33, ptr %31, align 4, !tbaa !29
  br label %.critedge.i

34:                                               ; preds = %.lr.ph.i
  %indvars.iv.next.i = add nuw nsw i64 %indvars.iv.i, 2
  %35 = trunc i64 %indvars.iv.next.i to i32
  %36 = or disjoint i32 %35, 1
  %37 = icmp slt i32 %36, %.val15.i
  br i1 %37, label %.lr.ph.i, label %.critedge.i, !llvm.loop !68

.critedge.i:                                      ; preds = %34, %27, %19
  %.023.i = phi i32 [ %28, %27 ], [ 0, %19 ], [ %35, %34 ]
  %38 = icmp eq i32 %.023.i, %.val15.i
  br i1 %38, label %39, label %Gia_ManMulFindAddEntry1.exit

39:                                               ; preds = %.critedge.i
  %40 = load i32, ptr %3, align 8, !tbaa !34
  %41 = icmp eq i32 %.val15.i, %40
  br i1 %41, label %42, label %Vec_IntPush.exit.i

42:                                               ; preds = %39
  %43 = icmp slt i32 %.val15.i, 16
  br i1 %43, label %44, label %49

44:                                               ; preds = %42
  %.not9.i.i.i = icmp eq ptr %20, null
  br i1 %.not9.i.i.i, label %47, label %45

45:                                               ; preds = %44
  %46 = tail call dereferenceable_or_null(64) ptr @realloc(ptr noundef nonnull %20, i64 noundef 64) #20
  br label %Vec_IntPush.exit.i.sink.split

47:                                               ; preds = %44
  %48 = tail call noalias dereferenceable_or_null(64) ptr @malloc(i64 noundef 64) #21
  br label %Vec_IntPush.exit.i.sink.split

49:                                               ; preds = %42
  %50 = shl nuw nsw i32 %.val15.i, 1
  %.not9.i9.i.i = icmp eq ptr %20, null
  %51 = zext nneg i32 %50 to i64
  %52 = shl nuw nsw i64 %51, 2
  br i1 %.not9.i9.i.i, label %55, label %53

53:                                               ; preds = %49
  %54 = tail call ptr @realloc(ptr noundef nonnull %20, i64 noundef %52) #20
  br label %Vec_IntPush.exit.i.sink.split

55:                                               ; preds = %49
  %56 = tail call noalias ptr @malloc(i64 noundef %52) #21
  br label %Vec_IntPush.exit.i.sink.split

Vec_IntPush.exit.i.sink.split:                    ; preds = %53, %55, %45, %47
  %.sink45 = phi ptr [ %46, %45 ], [ %48, %47 ], [ %54, %53 ], [ %56, %55 ]
  %.sink = phi i32 [ 16, %45 ], [ 16, %47 ], [ %50, %53 ], [ %50, %55 ]
  store ptr %.sink45, ptr %6, align 8, !tbaa !35
  store i32 %.sink, ptr %3, align 8, !tbaa !34
  br label %Vec_IntPush.exit.i

Vec_IntPush.exit.i:                               ; preds = %Vec_IntPush.exit.i.sink.split, %39
  %.pre.i.i38 = phi ptr [ %20, %39 ], [ %.sink45, %Vec_IntPush.exit.i.sink.split ]
  %57 = add nsw i32 %.val15.i, 1
  store i32 %57, ptr %4, align 4, !tbaa !33
  %58 = sext i32 %.val15.i to i64
  %59 = getelementptr inbounds i32, ptr %.pre.i.i38, i64 %58
  store i32 %22, ptr %59, align 4, !tbaa !29
  %60 = load i32, ptr %4, align 4, !tbaa !33
  %61 = load i32, ptr %3, align 8, !tbaa !34
  %62 = icmp eq i32 %60, %61
  br i1 %62, label %Vec_IntPush.exit9.sink.split.i, label %Vec_IntPushTwo.exit

Vec_IntPush.exit9.sink.split.i:                   ; preds = %Vec_IntPush.exit.i
  %63 = icmp slt i32 %60, 16
  %64 = shl nuw nsw i32 %60, 1
  %65 = zext nneg i32 %64 to i64
  %66 = shl nuw nsw i64 %65, 2
  %.sink46 = select i1 %63, i64 64, i64 %66
  %.sink.i = select i1 %63, i32 16, i32 %64
  %67 = tail call ptr @realloc(ptr noundef nonnull %.pre.i.i38, i64 noundef %.sink46) #20
  store ptr %67, ptr %6, align 8, !tbaa !35
  store i32 %.sink.i, ptr %3, align 8, !tbaa !34
  %.pre = load i32, ptr %4, align 4, !tbaa !33
  br label %Vec_IntPushTwo.exit

Vec_IntPushTwo.exit:                              ; preds = %Vec_IntPush.exit.i, %Vec_IntPush.exit9.sink.split.i
  %68 = phi i32 [ %60, %Vec_IntPush.exit.i ], [ %.pre, %Vec_IntPush.exit9.sink.split.i ]
  %.pre.i.i41 = phi ptr [ %.pre.i.i38, %Vec_IntPush.exit.i ], [ %67, %Vec_IntPush.exit9.sink.split.i ]
  %69 = add nsw i32 %68, 1
  store i32 %69, ptr %4, align 4, !tbaa !33
  %70 = sext i32 %68 to i64
  %71 = getelementptr inbounds i32, ptr %.pre.i.i41, i64 %70
  store i32 1, ptr %71, align 4, !tbaa !29
  br label %Gia_ManMulFindAddEntry1.exit

Gia_ManMulFindAddEntry1.exit:                     ; preds = %.critedge.i, %Vec_IntPushTwo.exit
  %.pre.i.i40 = phi ptr [ %20, %.critedge.i ], [ %.pre.i.i41, %Vec_IntPushTwo.exit ]
  %.val17.i35 = phi ptr [ %.val17.i, %.critedge.i ], [ %.pre.i.i41, %Vec_IntPushTwo.exit ]
  %indvars.iv.next = add nuw nsw i64 %indvars.iv, 1
  %.val = load i32, ptr %16, align 4, !tbaa !33
  %72 = sext i32 %.val to i64
  %73 = icmp slt i64 %indvars.iv.next, %72
  br i1 %73, label %19, label %.critedge2.loopexit, !llvm.loop !69

.critedge2.loopexit:                              ; preds = %Gia_ManMulFindAddEntry1.exit
  %.val17.pre = load i32, ptr %7, align 4, !tbaa !33
  br label %.critedge2

.critedge2:                                       ; preds = %.critedge2.loopexit, %11
  %.val17 = phi i32 [ %.val17.pre, %.critedge2.loopexit ], [ %.val1742, %11 ]
  %.pre.i.i37 = phi ptr [ %.pre.i.i40, %.critedge2.loopexit ], [ %.pre.i.i36, %11 ]
  %.val17.i33 = phi ptr [ %.val17.i35, %.critedge2.loopexit ], [ %.val17.i32, %11 ]
  %indvars.iv.next30 = add nuw nsw i64 %indvars.iv29, 1
  %74 = sext i32 %.val17 to i64
  %75 = icmp slt i64 %indvars.iv.next30, %74
  br i1 %75, label %11, label %.critedge, !llvm.loop !70

.critedge:                                        ; preds = %.critedge2, %2
  ret ptr %3
}